target datalayout = "e-m:e-p270:32:32-p271:32:32-p272:64:64-i64:64-i128:128-f80:128-n8:16:32:64-S128"
target triple = "x86_64-pc-linux-gnu"

@PyExc_TypeError = external global ptr, align 8
@.str.10 = private unnamed_addr constant [40 x i8] c"tcsetattr expected 3 arguments, got %zd\00", align 1

; Function Attrs: nounwind uwtable
define internal ptr @termios_tcsetattr(ptr noundef %0, ptr noundef %1, i64 noundef %2) #0 {
  %4 = alloca ptr, align 8
  %5 = alloca ptr, align 8
  %6 = alloca i64, align 8
  %7 = alloca ptr, align 8
  %8 = alloca i32, align 4
  %9 = alloca i32, align 4
  %10 = alloca ptr, align 8
  store ptr %0, ptr %4, align 8, !tbaa !3
  store ptr %1, ptr %5, align 8, !tbaa !13
  store i64 %2, ptr %6, align 8, !tbaa !15
  call void @llvm.lifetime.start.p0(i64 8, ptr %7) #7
  store ptr null, ptr %7, align 8, !tbaa !3
  call void @llvm.lifetime.start.p0(i64 4, ptr %8) #7
  call void @llvm.lifetime.start.p0(i64 4, ptr %9) #7
  call void @llvm.lifetime.start.p0(i64 8, ptr %10) #7
  %11 = load i64, ptr %6, align 8, !tbaa !15
  %12 = icmp ne i64 %11, 3
  br i1 %12, label %13, label %17

13:                                               ; preds = %3
  %14 = load ptr, ptr @PyExc_TypeError, align 8, !tbaa !3
  %15 = load i64, ptr %6, align 8, !tbaa !15
  %16 = call ptr (ptr, ptr, ...) @PyErr_Format(ptr noundef %14, ptr noundef @.str.10, i64 noundef %15)
  br label %45

17:                                               ; preds = %3
  %18 = load ptr, ptr %5, align 8, !tbaa !13
  %19 = getelementptr ptr, ptr %18, i64 0
  %20 = load ptr, ptr %19, align 8, !tbaa !3
  %21 = call i32 @PyObject_AsFileDescriptor(ptr noundef %20)
  store i32 %21, ptr %8, align 4, !tbaa !11
  %22 = load i32, ptr %8, align 4, !tbaa !11
  %23 = icmp slt i32 %22, 0
  br i1 %23, label %24, label %25

24:                                               ; preds = %17
  br label %45

25:                                               ; preds = %17
  %26 = load ptr, ptr %5, align 8, !tbaa !13
  %27 = getelementptr ptr, ptr %26, i64 1
  %28 = load ptr, ptr %27, align 8, !tbaa !3
  %29 = call i32 @PyLong_AsInt(ptr noundef %28)
  store i32 %29, ptr %9, align 4, !tbaa !11
  %30 = load i32, ptr %9, align 4, !tbaa !11
  %31 = icmp eq i32 %30, -1
  br i1 %31, label %32, label %36

32:                                               ; preds = %25
  %33 = call ptr @PyErr_Occurred()
  %34 = icmp ne ptr %33, null
  br i1 %34, label %35, label %36

35:                                               ; preds = %32
  br label %45

36:                                               ; preds = %32, %25
  %37 = load ptr, ptr %5, align 8, !tbaa !13
  %38 = getelementptr ptr, ptr %37, i64 2
  %39 = load ptr, ptr %38, align 8, !tbaa !3
  store ptr %39, ptr %10, align 8, !tbaa !3
  %40 = load ptr, ptr %4, align 8, !tbaa !3
  %41 = load i32, ptr %8, align 4, !tbaa !11
  %42 = load i32, ptr %9, align 4, !tbaa !11
  %43 = load ptr, ptr %10, align 8, !tbaa !3
  %44 = call ptr @termios_tcsetattr_impl(ptr noundef %40, i32 noundef %41, i32 noundef %42, ptr noundef %43)
  store ptr %44, ptr %7, align 8, !tbaa !3
  br label %45

45:                                               ; preds = %36, %35, %24, %13
  %46 = load ptr, ptr %7, align 8, !tbaa !3
  call void @llvm.lifetime.end.p0(i64 8, ptr %10) #7
  call void @llvm.lifetime.end.p0(i64 4, ptr %9) #7
  call void @llvm.lifetime.end.p0(i64 4, ptr %8) #7
  call void @llvm.lifetime.end.p0(i64 8, ptr %7) #7
  ret ptr %46
}