; Function Attrs: nounwind uwtable
define internal ptr @termios_tcsetattr(ptr noundef %0, ptr noundef readonly captures(none) %1, i64 noundef %2) #0 {
  %.not = icmp eq i64 %2, 3
  br i1 %.not, label %7, label %4

4:                                                ; preds = %3
  %5 = load ptr, ptr @PyExc_TypeError, align 8, !tbaa !9
  %6 = tail call ptr (ptr, ptr, ...) @PyErr_Format(ptr noundef %5, ptr noundef nonnull @.str.10, i64 noundef %2) #5
  br label %24

7:                                                ; preds = %3
  %8 = load ptr, ptr %1, align 8, !tbaa !9
  %9 = tail call i32 @PyObject_AsFileDescriptor(ptr noundef %8) #5
  %10 = icmp slt i32 %9, 0
  br i1 %10, label %24, label %11

11:                                               ; preds = %7
  %12 = getelementptr i8, ptr %1, i64 8
  %13 = load ptr, ptr %12, align 8, !tbaa !9
  %14 = tail call i32 @PyLong_AsInt(ptr noundef %13) #5
  %15 = icmp eq i32 %14, -1
  br i1 %15, label %19, label %.split

.split:                                           ; preds = %11
  %16 = getelementptr i8, ptr %1, i64 16
  %17 = load ptr, ptr %16, align 8, !tbaa !9
  %18 = tail call fastcc ptr @termios_tcsetattr_impl(ptr noundef %0, i32 noundef %9, i32 noundef %14, ptr noundef %17)
  br label %24

19:                                               ; preds = %11
  %20 = tail call ptr @PyErr_Occurred() #5
  %.not15 = icmp eq ptr %20, null
  br i1 %.not15, label %.split11, label %24

.split11:                                         ; preds = %19
  %21 = getelementptr i8, ptr %1, i64 16
  %22 = load ptr, ptr %21, align 8, !tbaa !9
  %23 = tail call fastcc ptr @termios_tcsetattr_impl(ptr noundef %0, i32 noundef %9, i32 noundef -1, ptr noundef %22)
  br label %24

24:                                               ; preds = %.split, %.split11, %19, %7, %4
  %.0 = phi ptr [ null, %4 ], [ null, %7 ], [ null, %19 ], [ %18, %.split ], [ %23, %.split11 ]
  ret ptr %.0
}